target datalayout = "e-m:e-p270:32:32-p271:32:32-p272:64:64-i64:64-i128:128-f80:128-n8:16:32:64-S128"
target triple = "x86_64-pc-linux-gnu"

%struct.CodedBitstreamFragment = type { ptr, i64, i64, ptr, i32, i32, ptr }
%struct.CodedBitstreamUnit = type { i32, ptr, i64, i64, ptr, ptr, ptr }
%struct.AVBufferRef = type { ptr, ptr, i64 }

@.str = private unnamed_addr constant [30 x i8] c"Assertion %s failed at %s:%d\0A\00", align 1
@.str.3 = private unnamed_addr constant [21 x i8] c"libavcodec/cbs_apv.c\00", align 1
@.str.80 = private unnamed_addr constant [12 x i8] c"pos == size\00", align 1

; Function Attrs: alwaysinline nounwind willreturn memory(none) uwtable
define internal i32 @av_bswap32(i32 noundef %0) #4 {
  %2 = alloca i32, align 4
  store i32 %0, ptr %2, align 4, !tbaa !11
  %3 = load i32, ptr %2, align 4, !tbaa !11
  %4 = shl i32 %3, 8
  %5 = and i32 %4, 65280
  %6 = load i32, ptr %2, align 4, !tbaa !11
  %7 = lshr i32 %6, 8
  %8 = and i32 %7, 255
  %9 = or i32 %5, %8
  %10 = shl i32 %9, 16
  %11 = load i32, ptr %2, align 4, !tbaa !11
  %12 = lshr i32 %11, 16
  %13 = shl i32 %12, 8
  %14 = and i32 %13, 65280
  %15 = load i32, ptr %2, align 4, !tbaa !11
  %16 = lshr i32 %15, 16
  %17 = lshr i32 %16, 8
  %18 = and i32 %17, 255
  %19 = or i32 %14, %18
  %20 = or i32 %10, %19
  ret i32 %20
}

; Function Attrs: nounwind uwtable
define internal i32 @cbs_apv_assemble_fragment(ptr noundef %0, ptr noundef %1) #0 {
  %3 = alloca i32, align 4
  %4 = alloca ptr, align 8
  %5 = alloca ptr, align 8
  %6 = alloca i64, align 8
  %7 = alloca i64, align 8
  %8 = alloca i32, align 4
  %9 = alloca i32, align 4
  %10 = alloca i32, align 4
  store ptr %0, ptr %4, align 8, !tbaa !4
  store ptr %1, ptr %5, align 8, !tbaa !9
  call void @llvm.lifetime.start.p0(i64 8, ptr %6) #8
  store i64 4, ptr %6, align 8, !tbaa !21
  call void @llvm.lifetime.start.p0(i64 8, ptr %7) #8
  call void @llvm.lifetime.start.p0(i64 4, ptr %8) #8
  store i32 0, ptr %8, align 4, !tbaa !11
  br label %11

11:                                               ; preds = %30, %2
  %12 = load i32, ptr %8, align 4, !tbaa !11
  %13 = load ptr, ptr %5, align 8, !tbaa !9
  %14 = getelementptr inbounds nuw %struct.CodedBitstreamFragment, ptr %13, i32 0, i32 4
  %15 = load i32, ptr %14, align 8, !tbaa !52
  %16 = icmp slt i32 %12, %15
  br i1 %16, label %18, label %17

17:                                               ; preds = %11
  call void @llvm.lifetime.end.p0(i64 4, ptr %8) #8
  br label %33

18:                                               ; preds = %11
  %19 = load ptr, ptr %5, align 8, !tbaa !9
  %20 = getelementptr inbounds nuw %struct.CodedBitstreamFragment, ptr %19, i32 0, i32 6
  %21 = load ptr, ptr %20, align 8, !tbaa !53
  %22 = load i32, ptr %8, align 4, !tbaa !11
  %23 = sext i32 %22 to i64
  %24 = getelementptr inbounds %struct.CodedBitstreamUnit, ptr %21, i64 %23
  %25 = getelementptr inbounds nuw %struct.CodedBitstreamUnit, ptr %24, i32 0, i32 2
  %26 = load i64, ptr %25, align 8, !tbaa !37
  %27 = add i64 %26, 4
  %28 = load i64, ptr %6, align 8, !tbaa !21
  %29 = add i64 %28, %27
  store i64 %29, ptr %6, align 8, !tbaa !21
  br label %30

30:                                               ; preds = %18
  %31 = load i32, ptr %8, align 4, !tbaa !11
  %32 = add nsw i32 %31, 1
  store i32 %32, ptr %8, align 4, !tbaa !11
  br label %11, !llvm.loop !54

33:                                               ; preds = %17
  %34 = load i64, ptr %6, align 8, !tbaa !21
  %35 = add i64 %34, 64
  %36 = call ptr @av_buffer_alloc(i64 noundef %35)
  %37 = load ptr, ptr %5, align 8, !tbaa !9
  %38 = getelementptr inbounds nuw %struct.CodedBitstreamFragment, ptr %37, i32 0, i32 3
  store ptr %36, ptr %38, align 8, !tbaa !31
  %39 = load ptr, ptr %5, align 8, !tbaa !9
  %40 = getelementptr inbounds nuw %struct.CodedBitstreamFragment, ptr %39, i32 0, i32 3
  %41 = load ptr, ptr %40, align 8, !tbaa !31
  %42 = icmp ne ptr %41, null
  br i1 %42, label %44, label %43

43:                                               ; preds = %33
  store i32 -12, ptr %3, align 4
  store i32 1, ptr %9, align 4
  br label %132

44:                                               ; preds = %33
  %45 = load ptr, ptr %5, align 8, !tbaa !9
  %46 = getelementptr inbounds nuw %struct.CodedBitstreamFragment, ptr %45, i32 0, i32 3
  %47 = load ptr, ptr %46, align 8, !tbaa !31
  %48 = getelementptr inbounds nuw %struct.AVBufferRef, ptr %47, i32 0, i32 1
  %49 = load ptr, ptr %48, align 8, !tbaa !55
  %50 = load ptr, ptr %5, align 8, !tbaa !9
  %51 = getelementptr inbounds nuw %struct.CodedBitstreamFragment, ptr %50, i32 0, i32 0
  store ptr %49, ptr %51, align 8, !tbaa !13
  %52 = load ptr, ptr %5, align 8, !tbaa !9
  %53 = getelementptr inbounds nuw %struct.CodedBitstreamFragment, ptr %52, i32 0, i32 0
  %54 = load ptr, ptr %53, align 8, !tbaa !13
  %55 = load i64, ptr %6, align 8, !tbaa !21
  %56 = getelementptr inbounds nuw i8, ptr %54, i64 %55
  call void @llvm.memset.p0.i64(ptr align 1 %56, i8 0, i64 64, i1 false)
  %57 = call i32 @av_bswap32(i32 noundef 1632663089) #9
  %58 = load ptr, ptr %5, align 8, !tbaa !9
  %59 = getelementptr inbounds nuw %struct.CodedBitstreamFragment, ptr %58, i32 0, i32 0
  %60 = load ptr, ptr %59, align 8, !tbaa !13
  store i32 %57, ptr %60, align 1, !tbaa !26
  store i64 4, ptr %7, align 8, !tbaa !21
  call void @llvm.lifetime.start.p0(i64 4, ptr %10) #8
  store i32 0, ptr %10, align 4, !tbaa !11
  br label %61

61:                                               ; preds = %117, %44
  %62 = load i32, ptr %10, align 4, !tbaa !11
  %63 = load ptr, ptr %5, align 8, !tbaa !9
  %64 = getelementptr inbounds nuw %struct.CodedBitstreamFragment, ptr %63, i32 0, i32 4
  %65 = load i32, ptr %64, align 8, !tbaa !52
  %66 = icmp slt i32 %62, %65
  br i1 %66, label %68, label %67

67:                                               ; preds = %61
  store i32 5, ptr %9, align 4
  call void @llvm.lifetime.end.p0(i64 4, ptr %10) #8
  br label %120

68:                                               ; preds = %61
  %69 = load ptr, ptr %5, align 8, !tbaa !9
  %70 = getelementptr inbounds nuw %struct.CodedBitstreamFragment, ptr %69, i32 0, i32 6
  %71 = load ptr, ptr %70, align 8, !tbaa !53
  %72 = load i32, ptr %10, align 4, !tbaa !11
  %73 = sext i32 %72 to i64
  %74 = getelementptr inbounds %struct.CodedBitstreamUnit, ptr %71, i64 %73
  %75 = getelementptr inbounds nuw %struct.CodedBitstreamUnit, ptr %74, i32 0, i32 2
  %76 = load i64, ptr %75, align 8, !tbaa !37
  %77 = trunc i64 %76 to i32
  %78 = call i32 @av_bswap32(i32 noundef %77) #9
  %79 = load ptr, ptr %5, align 8, !tbaa !9
  %80 = getelementptr inbounds nuw %struct.CodedBitstreamFragment, ptr %79, i32 0, i32 0
  %81 = load ptr, ptr %80, align 8, !tbaa !13
  %82 = load i64, ptr %7, align 8, !tbaa !21
  %83 = getelementptr inbounds nuw i8, ptr %81, i64 %82
  store i32 %78, ptr %83, align 1, !tbaa !26
  %84 = load i64, ptr %7, align 8, !tbaa !21
  %85 = add i64 %84, 4
  store i64 %85, ptr %7, align 8, !tbaa !21
  %86 = load ptr, ptr %5, align 8, !tbaa !9
  %87 = getelementptr inbounds nuw %struct.CodedBitstreamFragment, ptr %86, i32 0, i32 0
  %88 = load ptr, ptr %87, align 8, !tbaa !13
  %89 = load i64, ptr %7, align 8, !tbaa !21
  %90 = getelementptr inbounds nuw i8, ptr %88, i64 %89
  %91 = load ptr, ptr %5, align 8, !tbaa !9
  %92 = getelementptr inbounds nuw %struct.CodedBitstreamFragment, ptr %91, i32 0, i32 6
  %93 = load ptr, ptr %92, align 8, !tbaa !53
  %94 = load i32, ptr %10, align 4, !tbaa !11
  %95 = sext i32 %94 to i64
  %96 = getelementptr inbounds %struct.CodedBitstreamUnit, ptr %93, i64 %95
  %97 = getelementptr inbounds nuw %struct.CodedBitstreamUnit, ptr %96, i32 0, i32 1
  %98 = load ptr, ptr %97, align 8, !tbaa !35
  %99 = load ptr, ptr %5, align 8, !tbaa !9
  %100 = getelementptr inbounds nuw %struct.CodedBitstreamFragment, ptr %99, i32 0, i32 6
  %101 = load ptr, ptr %100, align 8, !tbaa !53
  %102 = load i32, ptr %10, align 4, !tbaa !11
  %103 = sext i32 %102 to i64
  %104 = getelementptr inbounds %struct.CodedBitstreamUnit, ptr %101, i64 %103
  %105 = getelementptr inbounds nuw %struct.CodedBitstreamUnit, ptr %104, i32 0, i32 2
  %106 = load i64, ptr %105, align 8, !tbaa !37
  call void @llvm.memcpy.p0.p0.i64(ptr align 1 %90, ptr align 1 %98, i64 %106, i1 false)
  %107 = load ptr, ptr %5, align 8, !tbaa !9
  %108 = getelementptr inbounds nuw %struct.CodedBitstreamFragment, ptr %107, i32 0, i32 6
  %109 = load ptr, ptr %108, align 8, !tbaa !53
  %110 = load i32, ptr %10, align 4, !tbaa !11
  %111 = sext i32 %110 to i64
  %112 = getelementptr inbounds %struct.CodedBitstreamUnit, ptr %109, i64 %111
  %113 = getelementptr inbounds nuw %struct.CodedBitstreamUnit, ptr %112, i32 0, i32 2
  %114 = load i64, ptr %113, align 8, !tbaa !37
  %115 = load i64, ptr %7, align 8, !tbaa !21
  %116 = add i64 %115, %114
  store i64 %116, ptr %7, align 8, !tbaa !21
  br label %117

117:                                              ; preds = %68
  %118 = load i32, ptr %10, align 4, !tbaa !11
  %119 = add nsw i32 %118, 1
  store i32 %119, ptr %10, align 4, !tbaa !11
  br label %61, !llvm.loop !58

120:                                              ; preds = %67
  br label %121

121:                                              ; preds = %120
  %122 = load i64, ptr %7, align 8, !tbaa !21
  %123 = load i64, ptr %6, align 8, !tbaa !21
  %124 = icmp eq i64 %122, %123
  br i1 %124, label %126, label %125

125:                                              ; preds = %121
  call void (ptr, i32, ptr, ...) @av_log(ptr noundef null, i32 noundef 0, ptr noundef @.str, ptr noundef @.str.80, ptr noundef @.str.3, i32 noundef 387)
  call void @abort() #10
  unreachable

126:                                              ; preds = %121
  br label %127

127:                                              ; preds = %126
  br label %128

128:                                              ; preds = %127
  %129 = load i64, ptr %6, align 8, !tbaa !21
  %130 = load ptr, ptr %5, align 8, !tbaa !9
  %131 = getelementptr inbounds nuw %struct.CodedBitstreamFragment, ptr %130, i32 0, i32 1
  store i64 %129, ptr %131, align 8, !tbaa !20
  store i32 0, ptr %3, align 4
  store i32 1, ptr %9, align 4
  br label %132

132:                                              ; preds = %128, %43
  call void @llvm.lifetime.end.p0(i64 8, ptr %7) #8
  call void @llvm.lifetime.end.p0(i64 8, ptr %6) #8
  %133 = load i32, ptr %3, align 4
  ret i32 %133
}